target datalayout = "e-m:e-p270:32:32-p271:32:32-p272:64:64-i64:64-i128:128-f80:128-n8:16:32:64-S128"
target triple = "x86_64-pc-linux-gnu"

%"struct.Luau::EqSat::Id" = type { i32 }
%"class.std::vector.0" = type { %"struct.std::_Vector_base.1" }
%"struct.std::_Vector_base.1" = type { %"struct.std::_Vector_base<Luau::EqSat::Id, std::allocator<Luau::EqSat::Id>>::_Vector_impl" }
%"struct.std::_Vector_base<Luau::EqSat::Id, std::allocator<Luau::EqSat::Id>>::_Vector_impl" = type { %"struct.std::_Vector_base<Luau::EqSat::Id, std::allocator<Luau::EqSat::Id>>::_Vector_impl_data" }
%"struct.std::_Vector_base<Luau::EqSat::Id, std::allocator<Luau::EqSat::Id>>::_Vector_impl_data" = type { ptr, ptr, ptr }
%"struct.Luau::EqSat::Slice.6" = type { ptr, i64 }
%"struct.Luau::EqSat::NodeSet" = type { %"class.std::vector.0" }
%"struct.std::__detail::_Hash_node_base" = type { ptr }
%"struct.std::__detail::_Prime_rehash_policy" = type { float, i64 }
%"struct.Luau::EqSat::EGraph" = type { [8 x i8], %"struct.Luau::EqSat::UnionFind", %"class.std::unordered_map", %"class.std::unordered_map.26", %"class.std::vector.0" }
%"struct.Luau::EqSat::UnionFind" = type { %"class.std::vector.0", %"class.std::vector.16" }
%"class.std::vector.16" = type { %"struct.std::_Vector_base.17" }
%"struct.std::_Vector_base.17" = type { %"struct.std::_Vector_base<int, std::allocator<int>>::_Vector_impl" }
%"struct.std::_Vector_base<int, std::allocator<int>>::_Vector_impl" = type { %"struct.std::_Vector_base<int, std::allocator<int>>::_Vector_impl_data" }
%"struct.std::_Vector_base<int, std::allocator<int>>::_Vector_impl_data" = type { ptr, ptr, ptr }
%"class.std::unordered_map" = type { %"class.std::_Hashtable" }
%"class.std::_Hashtable" = type { ptr, i64, %"struct.std::__detail::_Hash_node_base", i64, %"struct.std::__detail::_Prime_rehash_policy", ptr }
%"class.std::unordered_map.26" = type { %"class.std::_Hashtable.27" }
%"class.std::_Hashtable.27" = type { ptr, i64, %"struct.std::__detail::_Hash_node_base", i64, %"struct.std::__detail::_Prime_rehash_policy", ptr }
%class.anon.539 = type { ptr }
%class.anon.540 = type { ptr }

; Function Attrs: mustprogress nounwind uwtable
define linkonce_odr dso_local noundef ptr @_ZNKSt6vectorIN4Luau5EqSat2IdESaIS2_EE11_M_data_ptrIS2_EEPT_S7_(ptr noundef nonnull align 8 dereferenceable(24) %0, ptr noundef %1) #5 comdat align 2 {
  %3 = alloca ptr, align 8
  %4 = alloca ptr, align 8
  store ptr %0, ptr %3, align 8, !tbaa !26
  store ptr %1, ptr %4, align 8, !tbaa !28
  %5 = load ptr, ptr %4, align 8, !tbaa !28
  ret ptr %5
}

; Function Attrs: mustprogress uwtable
define linkonce_odr dso_local i32 @_ZNK4Luau5EqSat6EGraphINS0_8LanguageIJNS_19EqSatSimplification4TNilENS3_8TBooleanENS3_7TNumberENS3_7TStringENS3_7TThreadENS3_12TTopFunctionENS3_9TTopTableENS3_9TTopClassENS3_7TBufferENS3_7TOpaqueENS3_8SBooleanENS3_7SStringENS3_9TFunctionENS3_6TTableENS3_14TImportedTableENS3_6TClassENS3_4TAnyENS3_6TErrorENS3_8TUnknownENS3_6TNeverENS3_5UnionENS3_12IntersectionENS3_8NegationENS3_8TTypeFunENS3_7InvalidENS3_9TNoRefineENS3_6TBoundEEEENS3_8SimplifyEE4findENS0_2IdE(ptr noundef nonnull align 8 dereferenceable(192) %0, i32 %1) #6 comdat align 2 {
  %3 = alloca %"struct.Luau::EqSat::Id", align 4
  %4 = alloca %"struct.Luau::EqSat::Id", align 4
  %5 = alloca ptr, align 8
  %6 = alloca %"struct.Luau::EqSat::Id", align 4
  %7 = getelementptr inbounds nuw %"struct.Luau::EqSat::Id", ptr %4, i32 0, i32 0
  store i32 %1, ptr %7, align 4
  store ptr %0, ptr %5, align 8, !tbaa !98
  %8 = load ptr, ptr %5, align 8
  %9 = getelementptr inbounds nuw %"struct.Luau::EqSat::EGraph", ptr %8, i32 0, i32 1
  call void @llvm.memcpy.p0.p0.i64(ptr align 4 %6, ptr align 4 %4, i64 4, i1 false), !tbaa.struct !47
  %10 = getelementptr inbounds nuw %"struct.Luau::EqSat::Id", ptr %6, i32 0, i32 0
  %11 = load i32, ptr %10, align 4
  %12 = call i32 @_ZNK4Luau5EqSat9UnionFind4findENS0_2IdE(ptr noundef nonnull align 8 dereferenceable(48) %9, i32 %11)
  %13 = getelementptr inbounds nuw %"struct.Luau::EqSat::Id", ptr %3, i32 0, i32 0
  store i32 %12, ptr %13, align 4
  %14 = getelementptr inbounds nuw %"struct.Luau::EqSat::Id", ptr %3, i32 0, i32 0
  %15 = load i32, ptr %14, align 4
  ret i32 %15
}

; Function Attrs: mustprogress nounwind uwtable
define linkonce_odr dso_local void @_ZN4Luau5EqSat5SliceINS0_2IdEEC2EPS2_m(ptr noundef nonnull align 8 dereferenceable(16) %0, ptr noundef %1, i64 noundef %2) unnamed_addr #5 comdat align 2 {
  %4 = alloca ptr, align 8
  %5 = alloca ptr, align 8
  %6 = alloca i64, align 8
  store ptr %0, ptr %4, align 8, !tbaa !53
  store ptr %1, ptr %5, align 8, !tbaa !28
  store i64 %2, ptr %6, align 8, !tbaa !38
  %7 = load ptr, ptr %4, align 8
  %8 = getelementptr inbounds nuw %"struct.Luau::EqSat::Slice.6", ptr %7, i32 0, i32 0
  %9 = load ptr, ptr %5, align 8, !tbaa !28
  store ptr %9, ptr %8, align 8, !tbaa !55
  %10 = getelementptr inbounds nuw %"struct.Luau::EqSat::Slice.6", ptr %7, i32 0, i32 1
  %11 = load i64, ptr %6, align 8, !tbaa !38
  store i64 %11, ptr %10, align 8, !tbaa !57
  ret void
}

; Function Attrs: mustprogress nounwind uwtable
define linkonce_odr dso_local noundef i64 @_ZNKSt6vectorIN4Luau5EqSat2IdESaIS2_EE4sizeEv(ptr noundef nonnull align 8 dereferenceable(24) %0) #5 comdat align 2 {
  %2 = alloca ptr, align 8
  store ptr %0, ptr %2, align 8, !tbaa !26
  %3 = load ptr, ptr %2, align 8
  %4 = getelementptr inbounds nuw %"struct.std::_Vector_base.1", ptr %3, i32 0, i32 0
  %5 = getelementptr inbounds nuw %"struct.std::_Vector_base<Luau::EqSat::Id, std::allocator<Luau::EqSat::Id>>::_Vector_impl_data", ptr %4, i32 0, i32 1
  %6 = load ptr, ptr %5, align 8, !tbaa !30
  %7 = getelementptr inbounds nuw %"struct.std::_Vector_base.1", ptr %3, i32 0, i32 0
  %8 = getelementptr inbounds nuw %"struct.std::_Vector_base<Luau::EqSat::Id, std::allocator<Luau::EqSat::Id>>::_Vector_impl_data", ptr %7, i32 0, i32 0
  %9 = load ptr, ptr %8, align 8, !tbaa !33
  %10 = ptrtoint ptr %6 to i64
  %11 = ptrtoint ptr %9 to i64
  %12 = sub i64 %10, %11
  %13 = sdiv exact i64 %12, 4
  ret i64 %13
}

; Function Attrs: mustprogress nounwind uwtable
define linkonce_odr dso_local noundef ptr @_ZNSt6vectorIN4Luau5EqSat2IdESaIS2_EE4dataEv(ptr noundef nonnull align 8 dereferenceable(24) %0) #5 comdat align 2 {
  %2 = alloca ptr, align 8
  store ptr %0, ptr %2, align 8, !tbaa !26
  %3 = load ptr, ptr %2, align 8
  %4 = getelementptr inbounds nuw %"struct.std::_Vector_base.1", ptr %3, i32 0, i32 0
  %5 = getelementptr inbounds nuw %"struct.std::_Vector_base<Luau::EqSat::Id, std::allocator<Luau::EqSat::Id>>::_Vector_impl_data", ptr %4, i32 0, i32 0
  %6 = load ptr, ptr %5, align 8, !tbaa !33
  %7 = call noundef ptr @_ZNKSt6vectorIN4Luau5EqSat2IdESaIS2_EE11_M_data_ptrIS2_EEPT_S7_(ptr noundef nonnull align 8 dereferenceable(24) %3, ptr noundef %6) #4
  ret ptr %7
}

; Function Attrs: inlinehint mustprogress uwtable
define linkonce_odr dso_local i32 @_ZZN4Luau5EqSat6EGraphINS0_8LanguageIJNS_19EqSatSimplification4TNilENS3_8TBooleanENS3_7TNumberENS3_7TStringENS3_7TThreadENS3_12TTopFunctionENS3_9TTopTableENS3_9TTopClassENS3_7TBufferENS3_7TOpaqueENS3_8SBooleanENS3_7SStringENS3_9TFunctionENS3_6TTableENS3_14TImportedTableENS3_6TClassENS3_4TAnyENS3_6TErrorENS3_8TUnknownENS3_6TNeverENS3_5UnionENS3_12IntersectionENS3_8NegationENS3_8TTypeFunENS3_7InvalidENS3_9TNoRefineENS3_6TBoundEEEENS3_8SimplifyEE12canonicalizeERSV_ENKUlNS0_2IdEE_clESZ_(ptr noundef nonnull align 8 dereferenceable(8) %0, i32 %1) #8 comdat align 2 {
  %3 = alloca %"struct.Luau::EqSat::Id", align 4
  %4 = alloca %"struct.Luau::EqSat::Id", align 4
  %5 = alloca ptr, align 8
  %6 = alloca %"struct.Luau::EqSat::Id", align 4
  %7 = getelementptr inbounds nuw %"struct.Luau::EqSat::Id", ptr %4, i32 0, i32 0
  store i32 %1, ptr %7, align 4
  store ptr %0, ptr %5, align 8, !tbaa !104
  %8 = load ptr, ptr %5, align 8
  %9 = getelementptr inbounds nuw %class.anon.539, ptr %8, i32 0, i32 0
  %10 = load ptr, ptr %9, align 8, !tbaa !1624
  call void @llvm.memcpy.p0.p0.i64(ptr align 4 %6, ptr align 4 %4, i64 4, i1 false), !tbaa.struct !47
  %11 = getelementptr inbounds nuw %"struct.Luau::EqSat::Id", ptr %6, i32 0, i32 0
  %12 = load i32, ptr %11, align 4
  %13 = call i32 @_ZNK4Luau5EqSat6EGraphINS0_8LanguageIJNS_19EqSatSimplification4TNilENS3_8TBooleanENS3_7TNumberENS3_7TStringENS3_7TThreadENS3_12TTopFunctionENS3_9TTopTableENS3_9TTopClassENS3_7TBufferENS3_7TOpaqueENS3_8SBooleanENS3_7SStringENS3_9TFunctionENS3_6TTableENS3_14TImportedTableENS3_6TClassENS3_4TAnyENS3_6TErrorENS3_8TUnknownENS3_6TNeverENS3_5UnionENS3_12IntersectionENS3_8NegationENS3_8TTypeFunENS3_7InvalidENS3_9TNoRefineENS3_6TBoundEEEENS3_8SimplifyEE4findENS0_2IdE(ptr noundef nonnull align 8 dereferenceable(192) %10, i32 %12)
  %14 = getelementptr inbounds nuw %"struct.Luau::EqSat::Id", ptr %3, i32 0, i32 0
  store i32 %13, ptr %14, align 4
  %15 = getelementptr inbounds nuw %"struct.Luau::EqSat::Id", ptr %3, i32 0, i32 0
  %16 = load i32, ptr %15, align 4
  ret i32 %16
}

; Function Attrs: mustprogress nounwind uwtable
define linkonce_odr dso_local noundef ptr @_ZNK4Luau5EqSat5SliceINS0_2IdEE3endEv(ptr noundef nonnull align 8 dereferenceable(16) %0) #5 comdat align 2 {
  %2 = alloca ptr, align 8
  store ptr %0, ptr %2, align 8, !tbaa !53
  %3 = load ptr, ptr %2, align 8
  %4 = getelementptr inbounds nuw %"struct.Luau::EqSat::Slice.6", ptr %3, i32 0, i32 0
  %5 = load ptr, ptr %4, align 8, !tbaa !55
  %6 = getelementptr inbounds nuw %"struct.Luau::EqSat::Slice.6", ptr %3, i32 0, i32 1
  %7 = load i64, ptr %6, align 8, !tbaa !57
  %8 = getelementptr inbounds nuw %"struct.Luau::EqSat::Id", ptr %5, i64 %7
  ret ptr %8
}

; Function Attrs: mustprogress nounwind uwtable
define linkonce_odr dso_local noundef ptr @_ZNK4Luau5EqSat5SliceINS0_2IdEE5beginEv(ptr noundef nonnull align 8 dereferenceable(16) %0) #5 comdat align 2 {
  %2 = alloca ptr, align 8
  store ptr %0, ptr %2, align 8, !tbaa !53
  %3 = load ptr, ptr %2, align 8
  %4 = getelementptr inbounds nuw %"struct.Luau::EqSat::Slice.6", ptr %3, i32 0, i32 0
  %5 = load ptr, ptr %4, align 8, !tbaa !55
  ret ptr %5
}

; Function Attrs: mustprogress uwtable
define linkonce_odr dso_local { ptr, i64 } @_ZN4Luau5EqSat7NodeSetINS_19EqSatSimplification5UnionESt6vectorINS0_2IdESaIS5_EEE15mutableOperandsEv(ptr noundef nonnull align 8 dereferenceable(24) %0) #6 comdat align 2 {
  %2 = alloca %"struct.Luau::EqSat::Slice.6", align 8
  %3 = alloca ptr, align 8
  store ptr %0, ptr %3, align 8, !tbaa !107
  %4 = load ptr, ptr %3, align 8
  %5 = getelementptr inbounds nuw %"struct.Luau::EqSat::NodeSet", ptr %4, i32 0, i32 0
  %6 = call noundef ptr @_ZNSt6vectorIN4Luau5EqSat2IdESaIS2_EE4dataEv(ptr noundef nonnull align 8 dereferenceable(24) %5) #4
  %7 = getelementptr inbounds nuw %"struct.Luau::EqSat::NodeSet", ptr %4, i32 0, i32 0
  %8 = call noundef i64 @_ZNKSt6vectorIN4Luau5EqSat2IdESaIS2_EE4sizeEv(ptr noundef nonnull align 8 dereferenceable(24) %7) #4
  call void @_ZN4Luau5EqSat5SliceINS0_2IdEEC2EPS2_m(ptr noundef nonnull align 8 dereferenceable(16) %2, ptr noundef %6, i64 noundef %8)
  %9 = load { ptr, i64 }, ptr %2, align 8
  ret { ptr, i64 } %9
}

; Function Attrs: mustprogress uwtable
define linkonce_odr dso_local void @_ZN4Luau5EqSat12canonicalizeINS_19EqSatSimplification5UnionERZNS0_6EGraphINS0_8LanguageIJNS2_4TNilENS2_8TBooleanENS2_7TNumberENS2_7TStringENS2_7TThreadENS2_12TTopFunctionENS2_9TTopTableENS2_9TTopClassENS2_7TBufferENS2_7TOpaqueENS2_8SBooleanENS2_7SStringENS2_9TFunctionENS2_6TTableENS2_14TImportedTableENS2_6TClassENS2_4TAnyENS2_6TErrorENS2_8TUnknownENS2_6TNeverES3_NS2_12IntersectionENS2_8NegationENS2_8TTypeFunENS2_7InvalidENS2_9TNoRefineENS2_6TBoundEEEENS2_8SimplifyEE12canonicalizeERSW_EUlNS0_2IdEE_EEvRT_OT0_(ptr noundef nonnull align 8 dereferenceable(24) %0, ptr noundef nonnull align 8 dereferenceable(8) %1) #6 comdat {
  %3 = alloca ptr, align 8
  %4 = alloca ptr, align 8
  %5 = alloca ptr, align 8
  %6 = alloca %"struct.Luau::EqSat::Slice.6", align 8
  %7 = alloca ptr, align 8
  %8 = alloca ptr, align 8
  %9 = alloca ptr, align 8
  %10 = alloca %"struct.Luau::EqSat::Id", align 4
  %11 = alloca %"struct.Luau::EqSat::Id", align 4
  store ptr %0, ptr %3, align 8, !tbaa !105
  store ptr %1, ptr %4, align 8, !tbaa !104
  call void @llvm.lifetime.start.p0(i64 8, ptr %5) #4
  call void @llvm.lifetime.start.p0(i64 16, ptr %6) #4
  %12 = load ptr, ptr %3, align 8, !tbaa !105
  %13 = call { ptr, i64 } @_ZN4Luau5EqSat7NodeSetINS_19EqSatSimplification5UnionESt6vectorINS0_2IdESaIS5_EEE15mutableOperandsEv(ptr noundef nonnull align 8 dereferenceable(24) %12)
  %14 = getelementptr inbounds nuw { ptr, i64 }, ptr %6, i32 0, i32 0
  %15 = extractvalue { ptr, i64 } %13, 0
  store ptr %15, ptr %14, align 8
  %16 = getelementptr inbounds nuw { ptr, i64 }, ptr %6, i32 0, i32 1
  %17 = extractvalue { ptr, i64 } %13, 1
  store i64 %17, ptr %16, align 8
  store ptr %6, ptr %5, align 8, !tbaa !53
  call void @llvm.lifetime.start.p0(i64 8, ptr %7) #4
  %18 = load ptr, ptr %5, align 8, !tbaa !53
  %19 = call noundef ptr @_ZNK4Luau5EqSat5SliceINS0_2IdEE5beginEv(ptr noundef nonnull align 8 dereferenceable(16) %18)
  store ptr %19, ptr %7, align 8, !tbaa !28
  call void @llvm.lifetime.start.p0(i64 8, ptr %8) #4
  %20 = load ptr, ptr %5, align 8, !tbaa !53
  %21 = call noundef ptr @_ZNK4Luau5EqSat5SliceINS0_2IdEE3endEv(ptr noundef nonnull align 8 dereferenceable(16) %20)
  store ptr %21, ptr %8, align 8, !tbaa !28
  br label %22

22:                                               ; preds = %36, %2
  %23 = load ptr, ptr %7, align 8, !tbaa !28
  %24 = load ptr, ptr %8, align 8, !tbaa !28
  %25 = icmp ne ptr %23, %24
  br i1 %25, label %27, label %26

26:                                               ; preds = %22
  call void @llvm.lifetime.end.p0(i64 8, ptr %8) #4
  call void @llvm.lifetime.end.p0(i64 8, ptr %7) #4
  call void @llvm.lifetime.end.p0(i64 16, ptr %6) #4
  call void @llvm.lifetime.end.p0(i64 8, ptr %5) #4
  br label %39

27:                                               ; preds = %22
  call void @llvm.lifetime.start.p0(i64 8, ptr %9) #4
  %28 = load ptr, ptr %7, align 8, !tbaa !28
  store ptr %28, ptr %9, align 8, !tbaa !28
  call void @llvm.lifetime.start.p0(i64 4, ptr %10) #4
  %29 = load ptr, ptr %4, align 8, !tbaa !104
  %30 = load ptr, ptr %9, align 8, !tbaa !28
  call void @llvm.memcpy.p0.p0.i64(ptr align 4 %11, ptr align 4 %30, i64 4, i1 false), !tbaa.struct !47
  %31 = getelementptr inbounds nuw %"struct.Luau::EqSat::Id", ptr %11, i32 0, i32 0
  %32 = load i32, ptr %31, align 4
  %33 = call i32 @_ZZN4Luau5EqSat6EGraphINS0_8LanguageIJNS_19EqSatSimplification4TNilENS3_8TBooleanENS3_7TNumberENS3_7TStringENS3_7TThreadENS3_12TTopFunctionENS3_9TTopTableENS3_9TTopClassENS3_7TBufferENS3_7TOpaqueENS3_8SBooleanENS3_7SStringENS3_9TFunctionENS3_6TTableENS3_14TImportedTableENS3_6TClassENS3_4TAnyENS3_6TErrorENS3_8TUnknownENS3_6TNeverENS3_5UnionENS3_12IntersectionENS3_8NegationENS3_8TTypeFunENS3_7InvalidENS3_9TNoRefineENS3_6TBoundEEEENS3_8SimplifyEE12canonicalizeERSV_ENKUlNS0_2IdEE_clESZ_(ptr noundef nonnull align 8 dereferenceable(8) %29, i32 %32)
  %34 = getelementptr inbounds nuw %"struct.Luau::EqSat::Id", ptr %10, i32 0, i32 0
  store i32 %33, ptr %34, align 4
  %35 = load ptr, ptr %9, align 8, !tbaa !28
  call void @llvm.memcpy.p0.p0.i64(ptr align 4 %35, ptr align 4 %10, i64 4, i1 false), !tbaa.struct !47
  call void @llvm.lifetime.end.p0(i64 4, ptr %10) #4
  call void @llvm.lifetime.end.p0(i64 8, ptr %9) #4
  br label %36

36:                                               ; preds = %27
  %37 = load ptr, ptr %7, align 8, !tbaa !28
  %38 = getelementptr inbounds nuw %"struct.Luau::EqSat::Id", ptr %37, i32 1
  store ptr %38, ptr %7, align 8, !tbaa !28
  br label %22

39:                                               ; preds = %26
  ret void
}

; Function Attrs: inlinehint mustprogress uwtable
define linkonce_odr dso_local void @_ZZN4Luau5EqSat12canonicalizeIZNS0_6EGraphINS0_8LanguageIJNS_19EqSatSimplification4TNilENS4_8TBooleanENS4_7TNumberENS4_7TStringENS4_7TThreadENS4_12TTopFunctionENS4_9TTopTableENS4_9TTopClassENS4_7TBufferENS4_7TOpaqueENS4_8SBooleanENS4_7SStringENS4_9TFunctionENS4_6TTableENS4_14TImportedTableENS4_6TClassENS4_4TAnyENS4_6TErrorENS4_8TUnknownENS4_6TNeverENS4_5UnionENS4_12IntersectionENS4_8NegationENS4_8TTypeFunENS4_7InvalidENS4_9TNoRefineENS4_6TBoundEEEENS4_8SimplifyEE12canonicalizeERSW_EUlNS0_2IdEE_JS5_S6_S7_S8_S9_SA_SB_SC_SD_SE_SF_SG_SH_SI_SJ_SK_SL_SM_SN_SO_SP_SQ_SR_SS_ST_SU_SV_EEEvRNS3_IJDpT0_EEEOT_ENKUlS17_E_clIRSP_EEDaS17_(ptr noundef nonnull align 8 dereferenceable(8) %0, ptr noundef nonnull align 8 dereferenceable(24) %1) #8 comdat align 2 {
  %3 = alloca ptr, align 8
  %4 = alloca ptr, align 8
  store ptr %0, ptr %3, align 8, !tbaa !104
  store ptr %1, ptr %4, align 8, !tbaa !105
  %5 = load ptr, ptr %3, align 8
  %6 = load ptr, ptr %4, align 8, !tbaa !105
  %7 = getelementptr inbounds nuw %class.anon.540, ptr %5, i32 0, i32 0
  %8 = load ptr, ptr %7, align 8, !tbaa !1637
  call void @_ZN4Luau5EqSat12canonicalizeINS_19EqSatSimplification5UnionERZNS0_6EGraphINS0_8LanguageIJNS2_4TNilENS2_8TBooleanENS2_7TNumberENS2_7TStringENS2_7TThreadENS2_12TTopFunctionENS2_9TTopTableENS2_9TTopClassENS2_7TBufferENS2_7TOpaqueENS2_8SBooleanENS2_7SStringENS2_9TFunctionENS2_6TTableENS2_14TImportedTableENS2_6TClassENS2_4TAnyENS2_6TErrorENS2_8TUnknownENS2_6TNeverES3_NS2_12IntersectionENS2_8NegationENS2_8TTypeFunENS2_7InvalidENS2_9TNoRefineENS2_6TBoundEEEENS2_8SimplifyEE12canonicalizeERSW_EUlNS0_2IdEE_EEvRT_OT0_(ptr noundef nonnull align 8 dereferenceable(24) %6, ptr noundef nonnull align 8 dereferenceable(8) %8)
  ret void
}

; Function Attrs: mustprogress uwtable
define internal void @_ZN4LuauL8fnVisitVIZNS_5EqSat12canonicalizeIZNS1_6EGraphINS1_8LanguageIJNS_19EqSatSimplification4TNilENS5_8TBooleanENS5_7TNumberENS5_7TStringENS5_7TThreadENS5_12TTopFunctionENS5_9TTopTableENS5_9TTopClassENS5_7TBufferENS5_7TOpaqueENS5_8SBooleanENS5_7SStringENS5_9TFunctionENS5_6TTableENS5_14TImportedTableENS5_6TClassENS5_4TAnyENS5_6TErrorENS5_8TUnknownENS5_6TNeverENS5_5UnionENS5_12IntersectionENS5_8NegationENS5_8TTypeFunENS5_7InvalidENS5_9TNoRefineENS5_6TBoundEEEENS5_8SimplifyEE12canonicalizeERSX_EUlNS1_2IdEE_JS6_S7_S8_S9_SA_SB_SC_SD_SE_SF_SG_SH_SI_SJ_SK_SL_SM_SN_SO_SP_SQ_SR_SS_ST_SU_SV_SW_EEEvRNS4_IJDpT0_EEEOT_EUlS18_E_SQ_EEvRS17_PNSt11conditionalIXsr3stdE10is_const_vIT0_EEKvvE4typeE(ptr noundef nonnull align 8 dereferenceable(8) %0, ptr noundef %1) #6 {
  %3 = alloca ptr, align 8
  %4 = alloca ptr, align 8
  store ptr %0, ptr %3, align 8, !tbaa !104
  store ptr %1, ptr %4, align 8, !tbaa !104
  %5 = load ptr, ptr %3, align 8, !tbaa !104
  %6 = load ptr, ptr %4, align 8, !tbaa !104
  call void @_ZZN4Luau5EqSat12canonicalizeIZNS0_6EGraphINS0_8LanguageIJNS_19EqSatSimplification4TNilENS4_8TBooleanENS4_7TNumberENS4_7TStringENS4_7TThreadENS4_12TTopFunctionENS4_9TTopTableENS4_9TTopClassENS4_7TBufferENS4_7TOpaqueENS4_8SBooleanENS4_7SStringENS4_9TFunctionENS4_6TTableENS4_14TImportedTableENS4_6TClassENS4_4TAnyENS4_6TErrorENS4_8TUnknownENS4_6TNeverENS4_5UnionENS4_12IntersectionENS4_8NegationENS4_8TTypeFunENS4_7InvalidENS4_9TNoRefineENS4_6TBoundEEEENS4_8SimplifyEE12canonicalizeERSW_EUlNS0_2IdEE_JS5_S6_S7_S8_S9_SA_SB_SC_SD_SE_SF_SG_SH_SI_SJ_SK_SL_SM_SN_SO_SP_SQ_SR_SS_ST_SU_SV_EEEvRNS3_IJDpT0_EEEOT_ENKUlS17_E_clIRSP_EEDaS17_(ptr noundef nonnull align 8 dereferenceable(8) %5, ptr noundef nonnull align 8 dereferenceable(24) %6)
  ret void
}